; Function Attrs: mustprogress uwtable
define dso_local void @_ZN5BlockC2EPS_i(ptr noundef nonnull align 8 dereferenceable(192) %0, ptr noundef %1, i32 noundef %2) unnamed_addr #3 align 2 personality ptr @__gxx_personality_v0 {
  tail call void @_ZN9StatementC2E14eStatementTypeP5Block(ptr noundef nonnull align 8 dereferenceable(32) %0, i32 noundef 1, ptr noundef %1)
  store ptr getelementptr inbounds ({ [14 x ptr] }, ptr @_ZTV5Block, i64 0, i32 0, i64 2), ptr %0, align 8
  %4 = getelementptr inbounds i8, ptr %0, i64 32
  %5 = getelementptr inbounds i8, ptr %0, i64 112
  store i32 0, ptr %5, align 8
  %6 = getelementptr inbounds i8, ptr %0, i64 120
  store ptr null, ptr %6, align 8
  %7 = getelementptr inbounds i8, ptr %0, i64 128
  tail call void @llvm.memset.p0.i64(ptr noundef nonnull align 8 dereferenceable(72) %4, i8 0, i64 72, i1 false)
  store ptr %5, ptr %7, align 8
  %8 = getelementptr inbounds i8, ptr %0, i64 136
  store ptr %5, ptr %8, align 8
  %9 = getelementptr inbounds i8, ptr %0, i64 144
  store i64 0, ptr %9, align 8
  %10 = getelementptr inbounds i8, ptr %0, i64 154
  store i8 0, ptr %10, align 2
  %11 = getelementptr inbounds i8, ptr %0, i64 160
  %12 = getelementptr inbounds i8, ptr %0, i64 188
  tail call void @llvm.memset.p0.i64(ptr noundef nonnull align 8 dereferenceable(25) %11, i8 0, i64 25, i1 false)
  store i32 %2, ptr %12, align 4
  ret void
}